target datalayout = "e-m:e-p270:32:32-p271:32:32-p272:64:64-i64:64-i128:128-f80:128-n8:16:32:64-S128"
target triple = "x86_64-pc-linux-gnu"

%struct.bio_st = type { ptr, ptr, ptr, i32, i32, i32, i32, i32, i32, ptr, ptr, i64, i64 }
%struct.bio_bio_st = type { ptr, i32, i64, i64, i64, ptr, i8, i8, i8, i64 }

@.str = private unnamed_addr constant [121 x i8] c"generated/home/dtcxzyw/WorkSpace/Projects/compilers/llvm-opt-benchmark/bench/libquic/libquic/boringssl/crypto/bio/pair.c\00", align 1
@methods_biop = internal constant { i32, [4 x i8], ptr, ptr, ptr, ptr, ptr, ptr, ptr, ptr, ptr } { i32 1043, [4 x i8] zeroinitializer, ptr @.str.1, ptr @bio_write, ptr @bio_read, ptr @bio_puts, ptr null, ptr @bio_ctrl, ptr @bio_new, ptr @bio_free, ptr null }, align 8

; Function Attrs: nounwind uwtable
define internal i32 @bio_make_pair(ptr noundef %0, ptr noundef %1, i64 noundef %2, ptr noundef %3, i64 noundef %4, ptr noundef %5) #0 {
  %7 = alloca i32, align 4
  %8 = alloca ptr, align 8
  %9 = alloca ptr, align 8
  %10 = alloca i64, align 8
  %11 = alloca ptr, align 8
  %12 = alloca i64, align 8
  %13 = alloca ptr, align 8
  %14 = alloca ptr, align 8
  %15 = alloca ptr, align 8
  %16 = alloca i32, align 4
  store ptr %0, ptr %8, align 8, !tbaa !6
  store ptr %1, ptr %9, align 8, !tbaa !6
  store i64 %2, ptr %10, align 8, !tbaa !15
  store ptr %3, ptr %11, align 8, !tbaa !33
  store i64 %4, ptr %12, align 8, !tbaa !15
  store ptr %5, ptr %13, align 8, !tbaa !33
  call void @llvm.lifetime.start.p0(i64 8, ptr %14) #8
  call void @llvm.lifetime.start.p0(i64 8, ptr %15) #8
  %17 = load ptr, ptr %8, align 8, !tbaa !6
  %18 = getelementptr inbounds nuw %struct.bio_st, ptr %17, i32 0, i32 9
  %19 = load ptr, ptr %18, align 8, !tbaa !22
  store ptr %19, ptr %14, align 8, !tbaa !23
  %20 = load ptr, ptr %9, align 8, !tbaa !6
  %21 = getelementptr inbounds nuw %struct.bio_st, ptr %20, i32 0, i32 9
  %22 = load ptr, ptr %21, align 8, !tbaa !22
  store ptr %22, ptr %15, align 8, !tbaa !23
  %23 = load ptr, ptr %14, align 8, !tbaa !23
  %24 = getelementptr inbounds nuw %struct.bio_bio_st, ptr %23, i32 0, i32 0
  %25 = load ptr, ptr %24, align 8, !tbaa !25
  %26 = icmp ne ptr %25, null
  br i1 %26, label %32, label %27

27:                                               ; preds = %6
  %28 = load ptr, ptr %15, align 8, !tbaa !23
  %29 = getelementptr inbounds nuw %struct.bio_bio_st, ptr %28, i32 0, i32 0
  %30 = load ptr, ptr %29, align 8, !tbaa !25
  %31 = icmp ne ptr %30, null
  br i1 %31, label %32, label %33

32:                                               ; preds = %27, %6
  call void @ERR_put_error(i32 noundef 17, i32 noundef 0, i32 noundef 105, ptr noundef @.str, i32 noundef 579)
  store i32 0, ptr %7, align 4
  store i32 1, ptr %16, align 4
  br label %142

33:                                               ; preds = %27
  %34 = load ptr, ptr %14, align 8, !tbaa !23
  %35 = getelementptr inbounds nuw %struct.bio_bio_st, ptr %34, i32 0, i32 5
  %36 = load ptr, ptr %35, align 8, !tbaa !32
  %37 = icmp eq ptr %36, null
  br i1 %37, label %38, label %74

38:                                               ; preds = %33
  %39 = load i64, ptr %10, align 8, !tbaa !15
  %40 = icmp ne i64 %39, 0
  br i1 %40, label %41, label %45

41:                                               ; preds = %38
  %42 = load i64, ptr %10, align 8, !tbaa !15
  %43 = load ptr, ptr %14, align 8, !tbaa !23
  %44 = getelementptr inbounds nuw %struct.bio_bio_st, ptr %43, i32 0, i32 4
  store i64 %42, ptr %44, align 8, !tbaa !30
  br label %45

45:                                               ; preds = %41, %38
  %46 = load ptr, ptr %11, align 8, !tbaa !33
  %47 = icmp ne ptr %46, null
  br i1 %47, label %63, label %48

48:                                               ; preds = %45
  %49 = load ptr, ptr %14, align 8, !tbaa !23
  %50 = getelementptr inbounds nuw %struct.bio_bio_st, ptr %49, i32 0, i32 6
  store i8 0, ptr %50, align 8, !tbaa !41
  %51 = load ptr, ptr %14, align 8, !tbaa !23
  %52 = getelementptr inbounds nuw %struct.bio_bio_st, ptr %51, i32 0, i32 4
  %53 = load i64, ptr %52, align 8, !tbaa !30
  %54 = call noalias ptr @malloc(i64 noundef %53) #9
  %55 = load ptr, ptr %14, align 8, !tbaa !23
  %56 = getelementptr inbounds nuw %struct.bio_bio_st, ptr %55, i32 0, i32 5
  store ptr %54, ptr %56, align 8, !tbaa !32
  %57 = load ptr, ptr %14, align 8, !tbaa !23
  %58 = getelementptr inbounds nuw %struct.bio_bio_st, ptr %57, i32 0, i32 5
  %59 = load ptr, ptr %58, align 8, !tbaa !32
  %60 = icmp eq ptr %59, null
  br i1 %60, label %61, label %62

61:                                               ; preds = %48
  call void @ERR_put_error(i32 noundef 17, i32 noundef 0, i32 noundef 65, ptr noundef @.str, i32 noundef 594)
  store i32 0, ptr %7, align 4
  store i32 1, ptr %16, align 4
  br label %142

62:                                               ; preds = %48
  br label %69

63:                                               ; preds = %45
  %64 = load ptr, ptr %11, align 8, !tbaa !33
  %65 = load ptr, ptr %14, align 8, !tbaa !23
  %66 = getelementptr inbounds nuw %struct.bio_bio_st, ptr %65, i32 0, i32 5
  store ptr %64, ptr %66, align 8, !tbaa !32
  %67 = load ptr, ptr %14, align 8, !tbaa !23
  %68 = getelementptr inbounds nuw %struct.bio_bio_st, ptr %67, i32 0, i32 6
  store i8 1, ptr %68, align 8, !tbaa !41
  br label %69

69:                                               ; preds = %63, %62
  %70 = load ptr, ptr %14, align 8, !tbaa !23
  %71 = getelementptr inbounds nuw %struct.bio_bio_st, ptr %70, i32 0, i32 2
  store i64 0, ptr %71, align 8, !tbaa !29
  %72 = load ptr, ptr %14, align 8, !tbaa !23
  %73 = getelementptr inbounds nuw %struct.bio_bio_st, ptr %72, i32 0, i32 3
  store i64 0, ptr %73, align 8, !tbaa !31
  br label %74

74:                                               ; preds = %69, %33
  %75 = load ptr, ptr %15, align 8, !tbaa !23
  %76 = getelementptr inbounds nuw %struct.bio_bio_st, ptr %75, i32 0, i32 5
  %77 = load ptr, ptr %76, align 8, !tbaa !32
  %78 = icmp eq ptr %77, null
  br i1 %78, label %79, label %115

79:                                               ; preds = %74
  %80 = load i64, ptr %12, align 8, !tbaa !15
  %81 = icmp ne i64 %80, 0
  br i1 %81, label %82, label %86

82:                                               ; preds = %79
  %83 = load i64, ptr %12, align 8, !tbaa !15
  %84 = load ptr, ptr %15, align 8, !tbaa !23
  %85 = getelementptr inbounds nuw %struct.bio_bio_st, ptr %84, i32 0, i32 4
  store i64 %83, ptr %85, align 8, !tbaa !30
  br label %86

86:                                               ; preds = %82, %79
  %87 = load ptr, ptr %13, align 8, !tbaa !33
  %88 = icmp ne ptr %87, null
  br i1 %88, label %104, label %89

89:                                               ; preds = %86
  %90 = load ptr, ptr %15, align 8, !tbaa !23
  %91 = getelementptr inbounds nuw %struct.bio_bio_st, ptr %90, i32 0, i32 6
  store i8 0, ptr %91, align 8, !tbaa !41
  %92 = load ptr, ptr %15, align 8, !tbaa !23
  %93 = getelementptr inbounds nuw %struct.bio_bio_st, ptr %92, i32 0, i32 4
  %94 = load i64, ptr %93, align 8, !tbaa !30
  %95 = call noalias ptr @malloc(i64 noundef %94) #9
  %96 = load ptr, ptr %15, align 8, !tbaa !23
  %97 = getelementptr inbounds nuw %struct.bio_bio_st, ptr %96, i32 0, i32 5
  store ptr %95, ptr %97, align 8, !tbaa !32
  %98 = load ptr, ptr %15, align 8, !tbaa !23
  %99 = getelementptr inbounds nuw %struct.bio_bio_st, ptr %98, i32 0, i32 5
  %100 = load ptr, ptr %99, align 8, !tbaa !32
  %101 = icmp eq ptr %100, null
  br i1 %101, label %102, label %103

102:                                              ; preds = %89
  call void @ERR_put_error(i32 noundef 17, i32 noundef 0, i32 noundef 65, ptr noundef @.str, i32 noundef 613)
  store i32 0, ptr %7, align 4
  store i32 1, ptr %16, align 4
  br label %142

103:                                              ; preds = %89
  br label %110

104:                                              ; preds = %86
  %105 = load ptr, ptr %13, align 8, !tbaa !33
  %106 = load ptr, ptr %15, align 8, !tbaa !23
  %107 = getelementptr inbounds nuw %struct.bio_bio_st, ptr %106, i32 0, i32 5
  store ptr %105, ptr %107, align 8, !tbaa !32
  %108 = load ptr, ptr %15, align 8, !tbaa !23
  %109 = getelementptr inbounds nuw %struct.bio_bio_st, ptr %108, i32 0, i32 6
  store i8 1, ptr %109, align 8, !tbaa !41
  br label %110

110:                                              ; preds = %104, %103
  %111 = load ptr, ptr %15, align 8, !tbaa !23
  %112 = getelementptr inbounds nuw %struct.bio_bio_st, ptr %111, i32 0, i32 2
  store i64 0, ptr %112, align 8, !tbaa !29
  %113 = load ptr, ptr %15, align 8, !tbaa !23
  %114 = getelementptr inbounds nuw %struct.bio_bio_st, ptr %113, i32 0, i32 3
  store i64 0, ptr %114, align 8, !tbaa !31
  br label %115

115:                                              ; preds = %110, %74
  %116 = load ptr, ptr %9, align 8, !tbaa !6
  %117 = load ptr, ptr %14, align 8, !tbaa !23
  %118 = getelementptr inbounds nuw %struct.bio_bio_st, ptr %117, i32 0, i32 0
  store ptr %116, ptr %118, align 8, !tbaa !25
  %119 = load ptr, ptr %14, align 8, !tbaa !23
  %120 = getelementptr inbounds nuw %struct.bio_bio_st, ptr %119, i32 0, i32 1
  store i32 0, ptr %120, align 8, !tbaa !36
  %121 = load ptr, ptr %14, align 8, !tbaa !23
  %122 = getelementptr inbounds nuw %struct.bio_bio_st, ptr %121, i32 0, i32 9
  store i64 0, ptr %122, align 8, !tbaa !28
  %123 = load ptr, ptr %14, align 8, !tbaa !23
  %124 = getelementptr inbounds nuw %struct.bio_bio_st, ptr %123, i32 0, i32 7
  store i8 0, ptr %124, align 1, !tbaa !27
  %125 = load ptr, ptr %14, align 8, !tbaa !23
  %126 = getelementptr inbounds nuw %struct.bio_bio_st, ptr %125, i32 0, i32 8
  store i8 0, ptr %126, align 2, !tbaa !34
  %127 = load ptr, ptr %8, align 8, !tbaa !6
  %128 = load ptr, ptr %15, align 8, !tbaa !23
  %129 = getelementptr inbounds nuw %struct.bio_bio_st, ptr %128, i32 0, i32 0
  store ptr %127, ptr %129, align 8, !tbaa !25
  %130 = load ptr, ptr %15, align 8, !tbaa !23
  %131 = getelementptr inbounds nuw %struct.bio_bio_st, ptr %130, i32 0, i32 1
  store i32 0, ptr %131, align 8, !tbaa !36
  %132 = load ptr, ptr %15, align 8, !tbaa !23
  %133 = getelementptr inbounds nuw %struct.bio_bio_st, ptr %132, i32 0, i32 9
  store i64 0, ptr %133, align 8, !tbaa !28
  %134 = load ptr, ptr %15, align 8, !tbaa !23
  %135 = getelementptr inbounds nuw %struct.bio_bio_st, ptr %134, i32 0, i32 7
  store i8 0, ptr %135, align 1, !tbaa !27
  %136 = load ptr, ptr %15, align 8, !tbaa !23
  %137 = getelementptr inbounds nuw %struct.bio_bio_st, ptr %136, i32 0, i32 8
  store i8 0, ptr %137, align 2, !tbaa !34
  %138 = load ptr, ptr %8, align 8, !tbaa !6
  %139 = getelementptr inbounds nuw %struct.bio_st, ptr %138, i32 0, i32 3
  store i32 1, ptr %139, align 8, !tbaa !17
  %140 = load ptr, ptr %9, align 8, !tbaa !6
  %141 = getelementptr inbounds nuw %struct.bio_st, ptr %140, i32 0, i32 3
  store i32 1, ptr %141, align 8, !tbaa !17
  store i32 1, ptr %7, align 4
  store i32 1, ptr %16, align 4
  br label %142

142:                                              ; preds = %115, %102, %61, %32
  call void @llvm.lifetime.end.p0(i64 8, ptr %15) #8
  call void @llvm.lifetime.end.p0(i64 8, ptr %14) #8
  %143 = load i32, ptr %7, align 4
  ret i32 %143
}

; Function Attrs: nounwind uwtable
define internal ptr @bio_s_bio() #0 {
  ret ptr @methods_biop
}

; Function Attrs: nounwind uwtable
define hidden i32 @BIO_new_bio_pair_external_buf(ptr noundef %0, i64 noundef %1, ptr noundef %2, ptr noundef %3, i64 noundef %4, ptr noundef %5) #0 {
  %7 = alloca ptr, align 8
  %8 = alloca i64, align 8
  %9 = alloca ptr, align 8
  %10 = alloca ptr, align 8
  %11 = alloca i64, align 8
  %12 = alloca ptr, align 8
  %13 = alloca ptr, align 8
  %14 = alloca ptr, align 8
  %15 = alloca i32, align 4
  store ptr %0, ptr %7, align 8, !tbaa !38
  store i64 %1, ptr %8, align 8, !tbaa !15
  store ptr %2, ptr %9, align 8, !tbaa !33
  store ptr %3, ptr %10, align 8, !tbaa !38
  store i64 %4, ptr %11, align 8, !tbaa !15
  store ptr %5, ptr %12, align 8, !tbaa !33
  call void @llvm.lifetime.start.p0(i64 8, ptr %13) #8
  store ptr null, ptr %13, align 8, !tbaa !6
  call void @llvm.lifetime.start.p0(i64 8, ptr %14) #8
  store ptr null, ptr %14, align 8, !tbaa !6
  call void @llvm.lifetime.start.p0(i64 4, ptr %15) #8
  store i32 0, ptr %15, align 4, !tbaa !40
  %16 = load ptr, ptr %9, align 8, !tbaa !33
  %17 = icmp ne ptr %16, null
  br i1 %17, label %18, label %21

18:                                               ; preds = %6
  %19 = load i64, ptr %8, align 8, !tbaa !15
  %20 = icmp ne i64 %19, 0
  br i1 %20, label %21, label %27

21:                                               ; preds = %18, %6
  %22 = load ptr, ptr %12, align 8, !tbaa !33
  %23 = icmp ne ptr %22, null
  br i1 %23, label %24, label %28

24:                                               ; preds = %21
  %25 = load i64, ptr %11, align 8, !tbaa !15
  %26 = icmp ne i64 %25, 0
  br i1 %26, label %28, label %27

27:                                               ; preds = %24, %18
  br label %51

28:                                               ; preds = %24, %21
  %29 = call ptr @bio_s_bio()
  %30 = call ptr @BIO_new(ptr noundef %29)
  store ptr %30, ptr %13, align 8, !tbaa !6
  %31 = load ptr, ptr %13, align 8, !tbaa !6
  %32 = icmp eq ptr %31, null
  br i1 %32, label %33, label %34

33:                                               ; preds = %28
  br label %51

34:                                               ; preds = %28
  %35 = call ptr @bio_s_bio()
  %36 = call ptr @BIO_new(ptr noundef %35)
  store ptr %36, ptr %14, align 8, !tbaa !6
  %37 = load ptr, ptr %14, align 8, !tbaa !6
  %38 = icmp eq ptr %37, null
  br i1 %38, label %39, label %40

39:                                               ; preds = %34
  br label %51

40:                                               ; preds = %34
  %41 = load ptr, ptr %13, align 8, !tbaa !6
  %42 = load ptr, ptr %14, align 8, !tbaa !6
  %43 = load i64, ptr %8, align 8, !tbaa !15
  %44 = load ptr, ptr %9, align 8, !tbaa !33
  %45 = load i64, ptr %11, align 8, !tbaa !15
  %46 = load ptr, ptr %12, align 8, !tbaa !33
  %47 = call i32 @bio_make_pair(ptr noundef %41, ptr noundef %42, i64 noundef %43, ptr noundef %44, i64 noundef %45, ptr noundef %46)
  %48 = icmp ne i32 %47, 0
  br i1 %48, label %50, label %49

49:                                               ; preds = %40
  br label %51

50:                                               ; preds = %40
  store i32 1, ptr %15, align 4, !tbaa !40
  br label %51

51:                                               ; preds = %50, %49, %39, %33, %27
  %52 = load i32, ptr %15, align 4, !tbaa !40
  %53 = icmp eq i32 %52, 0
  br i1 %53, label %54, label %59

54:                                               ; preds = %51
  %55 = load ptr, ptr %13, align 8, !tbaa !6
  %56 = call i32 @BIO_free(ptr noundef %55)
  store ptr null, ptr %13, align 8, !tbaa !6
  %57 = load ptr, ptr %14, align 8, !tbaa !6
  %58 = call i32 @BIO_free(ptr noundef %57)
  store ptr null, ptr %14, align 8, !tbaa !6
  br label %59

59:                                               ; preds = %54, %51
  %60 = load ptr, ptr %13, align 8, !tbaa !6
  %61 = load ptr, ptr %7, align 8, !tbaa !38
  store ptr %60, ptr %61, align 8, !tbaa !6
  %62 = load ptr, ptr %14, align 8, !tbaa !6
  %63 = load ptr, ptr %10, align 8, !tbaa !38
  store ptr %62, ptr %63, align 8, !tbaa !6
  %64 = load i32, ptr %15, align 4, !tbaa !40
  call void @llvm.lifetime.end.p0(i64 4, ptr %15) #8
  call void @llvm.lifetime.end.p0(i64 8, ptr %14) #8
  call void @llvm.lifetime.end.p0(i64 8, ptr %13) #8
  ret i32 %64
}