; Function Attrs: nounwind uwtable
define hidden range(i32 0, 2) i32 @BIO_new_bio_pair_external_buf(ptr noundef writeonly captures(none) initializes((0, 8)) %0, i64 noundef %1, ptr noundef %2, ptr noundef writeonly captures(none) initializes((0, 8)) %3, i64 noundef %4, ptr noundef %5) local_unnamed_addr #0 {
  %7 = icmp eq ptr %2, null
  %8 = icmp ne i64 %1, 0
  %or.cond = or i1 %8, %7
  br i1 %or.cond, label %9, label %.thread

9:                                                ; preds = %6
  %10 = icmp eq ptr %5, null
  %11 = icmp ne i64 %4, 0
  %or.cond3 = or i1 %11, %10
  br i1 %or.cond3, label %12, label %.thread

12:                                               ; preds = %9
  %13 = tail call ptr @BIO_new(ptr noundef nonnull @methods_biop) #12
  %14 = icmp eq ptr %13, null
  br i1 %14, label %.thread, label %15

15:                                               ; preds = %12
  %16 = tail call ptr @BIO_new(ptr noundef nonnull @methods_biop) #12
  %17 = icmp eq ptr %16, null
  br i1 %17, label %.thread, label %18

18:                                               ; preds = %15
  %19 = getelementptr inbounds nuw i8, ptr %13, i64 48
  %20 = load ptr, ptr %19, align 8, !tbaa !17
  %21 = getelementptr inbounds nuw i8, ptr %16, i64 48
  %22 = load ptr, ptr %21, align 8, !tbaa !17
  %23 = load ptr, ptr %20, align 8, !tbaa !18
  %.not.i = icmp eq ptr %23, null
  br i1 %.not.i, label %24, label %26

24:                                               ; preds = %18
  %25 = load ptr, ptr %22, align 8, !tbaa !18
  %.not50.i = icmp eq ptr %25, null
  br i1 %.not50.i, label %27, label %26

26:                                               ; preds = %24, %18
  tail call void @ERR_put_error(i32 noundef 17, i32 noundef 0, i32 noundef 105, ptr noundef nonnull @.str, i32 noundef 579) #12
  br label %.thread

27:                                               ; preds = %24
  %28 = getelementptr inbounds nuw i8, ptr %20, i64 40
  %29 = load ptr, ptr %28, align 8, !tbaa !25
  %30 = icmp eq ptr %29, null
  br i1 %30, label %31, label %46

31:                                               ; preds = %27
  %.not51.i = icmp eq i64 %1, 0
  br i1 %.not51.i, label %34, label %32

32:                                               ; preds = %31
  %33 = getelementptr inbounds nuw i8, ptr %20, i64 32
  store i64 %1, ptr %33, align 8, !tbaa !23
  br label %34

34:                                               ; preds = %32, %31
  br i1 %7, label %35, label %42

35:                                               ; preds = %34
  %36 = getelementptr inbounds nuw i8, ptr %20, i64 48
  store i8 0, ptr %36, align 8, !tbaa !31
  %37 = getelementptr inbounds nuw i8, ptr %20, i64 32
  %38 = load i64, ptr %37, align 8, !tbaa !23
  %39 = tail call noalias ptr @malloc(i64 noundef %38) #13
  store ptr %39, ptr %28, align 8, !tbaa !25
  %40 = icmp eq ptr %39, null
  br i1 %40, label %41, label %44

41:                                               ; preds = %35
  tail call void @ERR_put_error(i32 noundef 17, i32 noundef 0, i32 noundef 65, ptr noundef nonnull @.str, i32 noundef 594) #12
  br label %.thread

42:                                               ; preds = %34
  store ptr %2, ptr %28, align 8, !tbaa !25
  %43 = getelementptr inbounds nuw i8, ptr %20, i64 48
  store i8 1, ptr %43, align 8, !tbaa !31
  br label %44

44:                                               ; preds = %42, %35
  %45 = getelementptr inbounds nuw i8, ptr %20, i64 16
  tail call void @llvm.memset.p0.i64(ptr noundef nonnull align 8 dereferenceable(16) %45, i8 0, i64 16, i1 false)
  br label %46

46:                                               ; preds = %44, %27
  %47 = getelementptr inbounds nuw i8, ptr %22, i64 40
  %48 = load ptr, ptr %47, align 8, !tbaa !25
  %49 = icmp eq ptr %48, null
  br i1 %49, label %50, label %65

50:                                               ; preds = %46
  %.not53.i = icmp eq i64 %4, 0
  br i1 %.not53.i, label %53, label %51

51:                                               ; preds = %50
  %52 = getelementptr inbounds nuw i8, ptr %22, i64 32
  store i64 %4, ptr %52, align 8, !tbaa !23
  br label %53

53:                                               ; preds = %51, %50
  br i1 %10, label %54, label %61

54:                                               ; preds = %53
  %55 = getelementptr inbounds nuw i8, ptr %22, i64 48
  store i8 0, ptr %55, align 8, !tbaa !31
  %56 = getelementptr inbounds nuw i8, ptr %22, i64 32
  %57 = load i64, ptr %56, align 8, !tbaa !23
  %58 = tail call noalias ptr @malloc(i64 noundef %57) #13
  store ptr %58, ptr %47, align 8, !tbaa !25
  %59 = icmp eq ptr %58, null
  br i1 %59, label %60, label %63

60:                                               ; preds = %54
  tail call void @ERR_put_error(i32 noundef 17, i32 noundef 0, i32 noundef 65, ptr noundef nonnull @.str, i32 noundef 613) #12
  br label %.thread

61:                                               ; preds = %53
  store ptr %5, ptr %47, align 8, !tbaa !25
  %62 = getelementptr inbounds nuw i8, ptr %22, i64 48
  store i8 1, ptr %62, align 8, !tbaa !31
  br label %63

63:                                               ; preds = %61, %54
  %64 = getelementptr inbounds nuw i8, ptr %22, i64 16
  tail call void @llvm.memset.p0.i64(ptr noundef nonnull align 8 dereferenceable(16) %64, i8 0, i64 16, i1 false)
  br label %65

65:                                               ; preds = %46, %63
  store ptr %16, ptr %20, align 8, !tbaa !18
  %66 = getelementptr inbounds nuw i8, ptr %20, i64 8
  store i32 0, ptr %66, align 8, !tbaa !29
  %67 = getelementptr inbounds nuw i8, ptr %20, i64 56
  store i64 0, ptr %67, align 8, !tbaa !21
  %68 = getelementptr inbounds nuw i8, ptr %20, i64 49
  store i8 0, ptr %68, align 1, !tbaa !20
  %69 = getelementptr inbounds nuw i8, ptr %20, i64 50
  store i8 0, ptr %69, align 2, !tbaa !27
  store ptr %13, ptr %22, align 8, !tbaa !18
  %70 = getelementptr inbounds nuw i8, ptr %22, i64 8
  store i32 0, ptr %70, align 8, !tbaa !29
  %71 = getelementptr inbounds nuw i8, ptr %22, i64 56
  store i64 0, ptr %71, align 8, !tbaa !21
  %72 = getelementptr inbounds nuw i8, ptr %22, i64 49
  store i8 0, ptr %72, align 1, !tbaa !20
  %73 = getelementptr inbounds nuw i8, ptr %22, i64 50
  store i8 0, ptr %73, align 2, !tbaa !27
  %74 = getelementptr inbounds nuw i8, ptr %13, i64 24
  store i32 1, ptr %74, align 8, !tbaa !10
  %75 = getelementptr inbounds nuw i8, ptr %16, i64 24
  store i32 1, ptr %75, align 8, !tbaa !10
  br label %78

.thread:                                          ; preds = %41, %60, %26, %6, %9, %15, %12
  %.02234 = phi ptr [ null, %12 ], [ null, %15 ], [ null, %9 ], [ null, %6 ], [ %16, %26 ], [ %16, %60 ], [ %16, %41 ]
  %.02333 = phi ptr [ null, %12 ], [ %13, %15 ], [ null, %9 ], [ null, %6 ], [ %13, %26 ], [ %13, %60 ], [ %13, %41 ]
  %76 = tail call i32 @BIO_free(ptr noundef %.02333) #12
  %77 = tail call i32 @BIO_free(ptr noundef %.02234) #12
  br label %78

78:                                               ; preds = %65, %.thread
  %.035 = phi i32 [ 0, %.thread ], [ 1, %65 ]
  %.124 = phi ptr [ null, %.thread ], [ %13, %65 ]
  %.1 = phi ptr [ null, %.thread ], [ %16, %65 ]
  store ptr %.124, ptr %0, align 8, !tbaa !32
  store ptr %.1, ptr %3, align 8, !tbaa !32
  ret i32 %.035
}